target datalayout = "e-m:e-p270:32:32-p271:32:32-p272:64:64-i64:64-i128:128-f80:128-n8:16:32:64-S128"
target triple = "x86_64-pc-linux-gnu"

%"class.icu_77::WholeStringBreakIterator" = type <{ %"class.icu_77::BreakIterator", i32, [4 x i8] }>
%"class.icu_77::BreakIterator" = type { %"class.icu_77::UObject", ptr, ptr, ptr }
%"class.icu_77::UObject" = type { ptr }

; Function Attrs: inlinehint mustprogress nounwind uwtable
define internal noundef signext i8 @_ZL9U_SUCCESS10UErrorCode(i32 noundef %0) #4 {
  %2 = alloca i32, align 4
  store i32 %0, ptr %2, align 4, !tbaa !13
  %3 = load i32, ptr %2, align 4, !tbaa !13
  %4 = icmp sle i32 %3, 0
  %5 = zext i1 %4 to i8
  ret i8 %5
}

; Function Attrs: mustprogress uwtable
define void @_ZN6icu_7724WholeStringBreakIterator7setTextEP5UTextR10UErrorCode(ptr noundef nonnull align 8 dereferenceable(36) %0, ptr noundef %1, ptr noundef nonnull align 4 dereferenceable(4) %2) unnamed_addr #3 align 2 {
  %4 = alloca ptr, align 8
  %5 = alloca ptr, align 8
  %6 = alloca ptr, align 8
  %7 = alloca i64, align 8
  store ptr %0, ptr %4, align 8, !tbaa !3
  store ptr %1, ptr %5, align 8, !tbaa !10
  store ptr %2, ptr %6, align 8, !tbaa !12
  %8 = load ptr, ptr %4, align 8
  %9 = load ptr, ptr %6, align 8, !tbaa !12
  %10 = load i32, ptr %9, align 4, !tbaa !13
  %11 = call noundef signext i8 @_ZL9U_SUCCESS10UErrorCode(i32 noundef %10)
  %12 = icmp ne i8 %11, 0
  br i1 %12, label %13, label %25

13:                                               ; preds = %3
  call void @llvm.lifetime.start.p0(i64 8, ptr %7) #8
  %14 = load ptr, ptr %5, align 8, !tbaa !10
  %15 = call i64 @utext_nativeLength_77(ptr noundef %14)
  store i64 %15, ptr %7, align 8, !tbaa !24
  %16 = load i64, ptr %7, align 8, !tbaa !24
  %17 = icmp sle i64 %16, 2147483647
  br i1 %17, label %18, label %22

18:                                               ; preds = %13
  %19 = load i64, ptr %7, align 8, !tbaa !24
  %20 = trunc i64 %19 to i32
  %21 = getelementptr inbounds nuw %"class.icu_77::WholeStringBreakIterator", ptr %8, i32 0, i32 1
  store i32 %20, ptr %21, align 8, !tbaa !17
  br label %24

22:                                               ; preds = %13
  %23 = load ptr, ptr %6, align 8, !tbaa !12
  store i32 8, ptr %23, align 4, !tbaa !13
  br label %24

24:                                               ; preds = %22, %18
  call void @llvm.lifetime.end.p0(i64 8, ptr %7) #8
  br label %25

25:                                               ; preds = %24, %3
  ret void
}