; Function Attrs: mustprogress uwtable
define void @_ZN6icu_7724WholeStringBreakIterator7setTextEP5UTextR10UErrorCode(ptr noundef nonnull writeonly align 8 captures(none) dereferenceable(36) %0, ptr noundef %1, ptr noundef nonnull align 4 captures(none) dereferenceable(4) %2) unnamed_addr #6 align 2 {
  %4 = load i32, ptr %2, align 4, !tbaa !3
  %5 = icmp sgt i32 %4, 0
  br i1 %5, label %13, label %6

6:                                                ; preds = %3
  %7 = tail call i64 @utext_nativeLength_77(ptr noundef %1)
  %8 = icmp slt i64 %7, 2147483648
  br i1 %8, label %9, label %12

9:                                                ; preds = %6
  %10 = trunc i64 %7 to i32
  %11 = getelementptr inbounds nuw i8, ptr %0, i64 32
  store i32 %10, ptr %11, align 8, !tbaa !8
  br label %13

12:                                               ; preds = %6
  store i32 8, ptr %2, align 4, !tbaa !3
  br label %13

13:                                               ; preds = %9, %12, %3
  ret void
}